MPASM 5.61  /HOME/BS06/E2099018/DESKTOP/3-2/   4-6-2018  15:03:59         PAGE  1


LOC  OBJECT CODE     LINE SOURCE TEXT
  VALUE

                      00001 #include "p18f8722.inc"
                      00001         LIST
                      00002 
                      00003 ;==========================================================================
                      00004 ; Build date : Feb 13 2015
                      00005 ;  MPASM PIC18F8722 processor include
                      00006 ; 
                      00007 ;  (c) Copyright 1999-2015 Microchip Technology, All rights reserved
                      00008 ;==========================================================================
                      00009 
                      02557         LIST
                      00002 
                      00003 ; TODO INSERT ISR HERE
Warning[205]: Found directive in column 1. (UDATA_ACS)
                      00004 UDATA_ACS   
000000                00005 s_1_up res 1 ; button_state_for_player_1 up
000001                00006 s_1_down res 1 ; button_state_for_player_1 down
000002                00007 s_2_up res 1 ; button_state_for_player_2 up
000003                00008 s_2_down res 1     ; button_state_for_player_2 down
000004                00009 move_up_1 res 1    ; Toggle flag to move the paddle1 up
000005                00010 move_down_1 res 1  ; Toggle flag to move the paddle1 down
000006                00011 move_up_2 res 1    ; Toggle flag to move the paddle2 up
000007                00012 move_down_2 res 1  ; Toggle flag to move the paddle2 down
000008                00013 counter res 1;     ; Counter for 300 ms (It will count up to 46)
000009                00014 Yok_olan46 res 1;
00000A                00015 move_ball_flag res 1;
00000B                00016 direction res 1    ; IN WHICH DIRECTION THE BALL IS MOVING LEFT=1, RIGHT=0
00000C                00017 column_ball res 1  ; the column of the ball   COLUMN=0-> PORTA , COLUMN=1 -> PORTB
00000D                00018 row res 1     ; the row of the ball
00000E                00019 left_score res 1   ; Holds the score of the left one
00000F                00020 right_score res 1   ; Holds the score of the right one
                      00021 
                      00022 RES_VECT  CODE    0x0000            ; processor reset vector
000000 EF?? F???      00023     GOTO    START                   ; go to beginning of program
                      00024 
Warning[205]: Found directive in column 1. (ORG)
                      00025 ORG 0X008
000008 EF?? F???      00026     GOTO HIGH_ISR
                      00027     
                      00028 ;*******************************************************************************
                      00029 ; MAIN PROGRAM
                      00030 ;*******************************************************************************         
                      00031 
00000C                00032 HIGH_ISR:
00000C 94F2           00033     bcf  INTCON, 2 ; CLEAR INTERRUPT FLAG
00000E 2A??           00034     incf counter
000010 50??           00035     movf counter,w
000012 62??           00036     cpfseq Yok_olan46
000014 0010           00037     retfie
000016 6A??           00038     clrf counter
000018 80??           00039     bsf  move_ball_flag, 0
00001A 0010           00040     retfie
                      00041     
MPASM 5.61  /HOME/BS06/E2099018/DESKTOP/3-2/   4-6-2018  15:03:59         PAGE  2


LOC  OBJECT CODE     LINE SOURCE TEXT
  VALUE

00001C                00042 START
00001C EC?? F???      00043     call INIT    
                      00044 
000020                00045 main:
000020 EC?? F???      00046     call paddle_1
000024 EC?? F???      00047     call paddle_2
000028 EC?? F???      00048     call move_ball
00002C EC?? F???      00049     call display
000030 EF?? F???      00050     goto main
                      00051 
000034                00052 move_ball:
000034 A0??           00053     btfss move_ball_flag,0 
000036 0012           00054     return
000038 6A??           00055     clrf  move_ball_flag ; CLEAR FLAG SO THAT BALL GET INTO THIS FUNCTION ONLY AFTER 300MS
00003A A0??           00056     btfss direction, 0
00003C EF?? F???      00057     goto  moving_to_right
                      00058 
Warning[207]: Found label after column 1. (moving_to_left)
000040                00059     moving_to_left:  ;  SWICH CASES
000040 50??           00060         movf  column_ball, w
000042 0A01           00061         xorlw 1 ; BALL AT PORT B
000044 B4D8           00062         btfsc STATUS, Z
000046 EF?? F???      00063         goto  left_a  ; BALL MOVES FROM PORTB TO PORTA
00004A 0A03           00064         xorlw 2^1 ; 1 ; BALL AT PORTC;
00004C B4D8           00065         btfsc STATUS, 2
00004E EF?? F???      00066         goto  left_b
000052 0A01           00067         xorlw 3^2 ;   ; BALL AT PORTD;
000054 B4D8           00068         btfsc STATUS, 2
000056 EF?? F???      00069         goto  left_c
00005A 0A07           00070         xorlw 4^3     ; BALL AT PORTE;
00005C B4D8           00071         btfsc STATUS, 2
00005E EF?? F???      00072         goto  left_d
000062 0A01           00073         xorlw 5^4   ; BALL AT PORTF;
000064 B4D8           00074         btfsc STATUS, 2
000066 EF?? F???      00075         goto  left_e
                      00076 
Warning[207]: Found label after column 1. (left_a)
00006A                00077         left_a: ;  BALL MOVES FROM PORTB TO PORTA
00006A 6A??           00078             clrf   column_ball
00006C 6A81           00079             clrf   PORTB
00006E A0D6           00080             btfss  TMR0L, 0
000070 EF?? F???      00081             goto   a_first_bit_0
000074 A2D6           00082             btfss  TMR0L, 1
000076 EF?? F???      00083             goto   a_bit_01
00007A EF?? F???      00084             goto   a_bit_00_11
                      00085 
Warning[207]: Found label after column 1. (a_first_bit_0)
00007E                00086             a_first_bit_0:
00007E A2D6           00087                 btfss TMR0L, 1
000080 EF?? F???      00088                 goto a_bit_00_11
000084 EF?? F???      00089                 goto a_bit_10
                      00090 
Warning[207]: Found label after column 1. (a_bit_00_11)
MPASM 5.61  /HOME/BS06/E2099018/DESKTOP/3-2/   4-6-2018  15:03:59         PAGE  3


LOC  OBJECT CODE     LINE SOURCE TEXT
  VALUE

000088                00091             a_bit_00_11: ; MOVE AT THE SAME LINE
000088 50??           00092                 movf  row, w
00008A 1480           00093                 andwf PORTA, w
00008C B4D8           00094                 btfsc STATUS, 2
00008E EF?? F???      00095                 goto right_scored
000092 70??           00096                 btg  direction, 0   
000094 EF?? F???      00097                 goto right_b  ;      BALL HITS THE PEDAL AND CHANGES DIRECTION
                      00098 
Warning[207]: Found label after column 1. (a_bit_01)
000098                00099             a_bit_01: ; MOVE UP
000098 42??           00100                 rrncf row
00009A A0??           00101                 btfss row,0     ; TEST IF BALL AT THE UPPER-BORDER
00009C 2A??           00102                 incf  row
00009E 50??           00103                 movf  row,w
0000A0 1480           00104                 andwf PORTA, w
0000A2 B4D8           00105                 btfsc STATUS, 2
0000A4 EF?? F???      00106                 goto  right_scored    
0000A8 EF?? F???      00107                 goto  right_b  ;      BALL HITS THE PEDAL AND MOVES
                      00108 
Warning[207]: Found label after column 1. (a_bit_10)
0000AC                00109             a_bit_10: ; MOVE DOWN
0000AC 46??           00110                 rlncf row
0000AE 0E20           00111                 movlw d'32'
0000B0 BC??           00112                 btfsc row, 6   ; TEST IF BALL AT THE LOWER-BORDER
0000B2 0E20           00113                 movlw d'32'    ; TURN ON BOTTOM LED
0000B4 50??           00114                 movf  row, w   ;
0000B6 1480           00115                 andwf PORTA, w ;
0000B8 B4D8           00116                 btfsc STATUS, 2;
0000BA EF?? F???      00117                 goto right_scored
0000BE 70??           00118                 btg  direction, 0
0000C0 EF?? F???      00119                 goto right_b  ;      BALL HITS THE PEDAL AND CHANGES DIRECTION
                      00120 
Warning[207]: Found label after column 1. (left_b)
0000C4                00121         left_b:
0000C4 6A??           00122             clrf   column_ball
0000C6 6A82           00123             clrf   PORTC
0000C8 A0D6           00124             btfss  TMR0L, 0
0000CA EF?? F???      00125             goto   b_first_bit_0
0000CE A2D6           00126             btfss  TMR0L, 1
0000D0 EF?? F???      00127             goto   b_bit_01
0000D4 EF?? F???      00128             goto   b_bit_00_11
                      00129 
Warning[207]: Found label after column 1. (b_first_bit_0)
0000D8                00130             b_first_bit_0:
0000D8 A2D6           00131                 btfss TMR0L, 1
0000DA EF?? F???      00132                 goto b_bit_00_11
0000DE EF?? F???      00133                 goto b_bit_10
                      00134 
Warning[207]: Found label after column 1. (b_bit_00_11)
0000E2                00135             b_bit_00_11: ; MOVE AT THE SAME LINE
0000E2 C??? FF81      00136                 movff row, PORTB
0000E6 EF?? F???      00137                 goto  left_end
                      00138 
MPASM 5.61  /HOME/BS06/E2099018/DESKTOP/3-2/   4-6-2018  15:03:59         PAGE  4


LOC  OBJECT CODE     LINE SOURCE TEXT
  VALUE

Warning[207]: Found label after column 1. (b_bit_01)
0000EA                00139             b_bit_01: ; MOVE UP
0000EA 42??           00140                 rrncf row
0000EC B0??           00141                 btfsc row,0     ; TEST IF BALL AT THE UPPER-BORDER
0000EE C??? FF81      00142                 movff row, PORTB
0000F2 0E01           00143                 movlw d'1'      ; TURN ON UPPER MOST LED
0000F4 6E81           00144                 movwf PORTB
0000F6 EF?? F???      00145                 goto  left_end
                      00146 
Warning[207]: Found label after column 1. (b_bit_10)
0000FA                00147             b_bit_10: ; MOVE DOWN
0000FA 46??           00148                 rlncf row
0000FC BC??           00149                 btfsc row, 6   ; ; TEST IF BALL AT THE LOWER-BORDER
0000FE C??? FF81      00150                 movff row,PORTB
000102 0E20           00151                 movlw d'32' ; TURN ON BOTTOM LED
000104 C??? FF81      00152                 movff row, PORTB
000108 EF?? F???      00153                 goto  left_end
                      00154 
Warning[207]: Found label after column 1. (left_c)
00010C                00155         left_c:
00010C 0E01           00156             movlw  d'1'
00010E 6E??           00157             movwf  column_ball
000110 6A83           00158             clrf   PORTD
000112 A0D6           00159             btfss  TMR0L, 0
000114 EF?? F???      00160             goto   c_first_bit_0
000118 A2D6           00161             btfss  TMR0L, 1
00011A EF?? F???      00162             goto   c_bit_01
00011E EF?? F???      00163             goto   c_bit_00_11
                      00164 
Warning[207]: Found label after column 1. (c_first_bit_0)
000122                00165             c_first_bit_0:
000122 A2D6           00166                 btfss TMR0L, 1
000124 EF?? F???      00167                 goto c_bit_00_11
000128 EF?? F???      00168                 goto c_bit_10
                      00169 
Warning[207]: Found label after column 1. (c_bit_00_11)
00012C                00170             c_bit_00_11:
00012C C??? FF82      00171                 movff row, PORTC
000130 EF?? F???      00172                 goto  left_end
                      00173 
Warning[207]: Found label after column 1. (c_bit_01)
000134                00174             c_bit_01:
000134 42??           00175                 rrncf row
000136 B0??           00176                 btfsc row,0
000138 C??? FF82      00177                 movff row, PORTC
00013C 0E01           00178                 movlw d'1'
00013E 6E82           00179                 movwf PORTC
000140 EF?? F???      00180                 goto  left_end
                      00181 
Warning[207]: Found label after column 1. (c_bit_10)
000144                00182             c_bit_10:
000144 46??           00183                 rlncf row
000146 BC??           00184                 btfsc row, 6   ; ; TEST IF BALL AT THE LOWER-BORDER
MPASM 5.61  /HOME/BS06/E2099018/DESKTOP/3-2/   4-6-2018  15:03:59         PAGE  5


LOC  OBJECT CODE     LINE SOURCE TEXT
  VALUE

000148 C??? FF82      00185                 movff row,PORTC
00014C 0E20           00186                 movlw d'32' ; TURN ON BOTTOM LED
00014E C??? FF82      00187                 movff row, PORTC
000152 EF?? F???      00188                 goto  left_end
                      00189 
Warning[207]: Found label after column 1. (left_d)
000156                00190         left_d:
000156 0E02           00191             movlw  d'2'
000158 6E??           00192             movwf  column_ball
00015A 6A84           00193             clrf   PORTE
00015C A0D6           00194             btfss  TMR0L, 0
00015E EF?? F???      00195             goto   d_first_bit_0
000162 A2D6           00196             btfss  TMR0L, 1
000164 EF?? F???      00197             goto   d_bit_01
000168 EF?? F???      00198             goto   d_bit_00_11
                      00199 
Warning[207]: Found label after column 1. (d_first_bit_0)
00016C                00200             d_first_bit_0:
00016C A2D6           00201                 btfss TMR0L, 1
00016E EF?? F???      00202                 goto  d_bit_00_11
000172 EF?? F???      00203                 goto  d_bit_10
                      00204 
Warning[207]: Found label after column 1. (d_bit_00_11)
000176                00205             d_bit_00_11:
000176 C??? FF83      00206                 movff row, PORTD
                      00207 
Warning[207]: Found label after column 1. (d_bit_01)
00017A                00208             d_bit_01:
00017A 42??           00209                 rrncf row
00017C B0??           00210                 btfsc row,0
00017E C??? FF83      00211                 movff row, PORTD
000182 0E01           00212                 movlw d'1'
000184 6E83           00213                 movwf PORTD
000186 EF?? F???      00214                 goto  left_end
                      00215 
Warning[207]: Found label after column 1. (d_bit_10)
00018A                00216             d_bit_10:
00018A 46??           00217                 rlncf row
00018C BC??           00218                 btfsc row, 6   ; ; TEST IF BALL AT THE LOWER-BORDER
00018E C??? FF83      00219                 movff row,PORTD
000192 0E20           00220                 movlw d'32' ; TURN ON BOTTOM LED
000194 C??? FF83      00221                 movff row, PORTD
000198 EF?? F???      00222                 goto  left_end
                      00223 
Warning[207]: Found label after column 1. (left_e)
00019C                00224         left_e:
00019C 0E03           00225             movlw  d'3'
00019E 6E??           00226             movwf  column_ball
0001A0 6A85           00227             clrf   PORTF
0001A2 A0D6           00228             btfss  TMR0L, 0
0001A4 EF?? F???      00229             goto   e_first_bit_0
0001A8 A2D6           00230             btfss  TMR0L, 1
0001AA EF?? F???      00231             goto   e_bit_01
MPASM 5.61  /HOME/BS06/E2099018/DESKTOP/3-2/   4-6-2018  15:03:59         PAGE  6


LOC  OBJECT CODE     LINE SOURCE TEXT
  VALUE

0001AE EF?? F???      00232             goto   e_bit_00_11
                      00233 
Warning[207]: Found label after column 1. (e_first_bit_0)
0001B2                00234             e_first_bit_0:
0001B2 A2D6           00235                 btfss TMR0L, 1
0001B4 EF?? F???      00236                 goto  e_bit_00_11
0001B8 EF?? F???      00237                 goto  e_bit_10
                      00238 
Warning[207]: Found label after column 1. (e_bit_00_11)
0001BC                00239             e_bit_00_11:
0001BC C??? FF84      00240                 movff row, PORTE
                      00241 
Warning[207]: Found label after column 1. (e_bit_01)
0001C0                00242             e_bit_01:
0001C0 42??           00243                 rrncf row
0001C2 B0??           00244                 btfsc row,0
0001C4 C??? FF84      00245                 movff row, PORTE
0001C8 0E01           00246                 movlw d'1'
0001CA 6E84           00247                 movwf PORTE
0001CC EF?? F???      00248                 goto  left_end
                      00249 
Warning[207]: Found label after column 1. (e_bit_10)
0001D0                00250             e_bit_10:
0001D0 46??           00251                 rlncf row
0001D2 BC??           00252                 btfsc row, 6   ; ; TEST IF BALL AT THE LOWER-BORDER
0001D4 C??? FF84      00253                 movff row,PORTE
0001D8 0E20           00254                 movlw d'32' ; TURN ON BOTTOM LED
0001DA C??? FF84      00255                 movff row, PORTE
0001DE EF?? F???      00256                 goto  left_end
                      00257 
                      00258 
Warning[207]: Found label after column 1. (moving_to_right)
0001E2                00259     moving_to_right:
0001E2 50??           00260         movf  column_ball, w
0001E4 0A00           00261         xorlw 0 ; BALL AT PORT A
0001E6 B4D8           00262         btfsc STATUS, 2
0001E8 EF?? F???      00263         goto  right_b ; BALL MOVES FROM PORTA TO PORTB
0001EC 0A01           00264         xorlw 1^0 ; 1 ; BALL AT PORTC;
0001EE B4D8           00265         btfsc STATUS, 2
0001F0 EF?? F???      00266         goto  right_c ; BALL MOVES FROM PORTB TO PORTC
0001F4 0A03           00267         xorlw 2^1 ;   ; BALL AT PORTD;
0001F6 B4D8           00268         btfsc STATUS, 2
0001F8 EF?? F???      00269         goto  right_d ; BALL MOVES FROM PORTC TO PORTD
0001FC 0A01           00270         xorlw 3^2     ; BALL AT PORTE;
0001FE B4D8           00271         btfsc STATUS, 2
000200 EF?? F???      00272         goto  right_e ; BALL MOVES FROM PORTD TO PORTE
000204 0A07           00273         xorlw 4^3     ; BALL AT PORTF;
000206 B4D8           00274         btfsc STATUS, 2
000208 EF?? F???      00275         goto  right_f ; BALL MOVES FROM PORTE TO PORTF
                      00276 
Warning[207]: Found label after column 1. (right_b)
00020C                00277         right_b:      ; BALL MOVES FROM PORTA TO PORTB
00020C 0E01           00278             movlw  d'1'
MPASM 5.61  /HOME/BS06/E2099018/DESKTOP/3-2/   4-6-2018  15:03:59         PAGE  7


LOC  OBJECT CODE     LINE SOURCE TEXT
  VALUE

00020E 6E??           00279             movwf  column_ball
000210 A0D6           00280             btfss  TMR0L, 0
000212 EF?? F???      00281             goto   rb_first_bit_0
000216 A2D6           00282             btfss  TMR0L, 1
000218 EF?? F???      00283             goto   rb_bit_01
00021C EF?? F???      00284             goto   rb_bit_00_11
                      00285 
Warning[207]: Found label after column 1. (rb_first_bit_0)
000220                00286             rb_first_bit_0:
000220 A2D6           00287                 btfss TMR0L, 1
000222 EF?? F???      00288                 goto  rb_bit_00_11
000226 EF?? F???      00289                 goto  rb_bit_10
                      00290 
Warning[207]: Found label after column 1. (rb_bit_00_11)
00022A                00291             rb_bit_00_11:
00022A C??? FF81      00292                 movff row, PORTB
                      00293 
Warning[207]: Found label after column 1. (rb_bit_01)
00022E                00294             rb_bit_01:
00022E 42??           00295                 rrncf row
000230 B0??           00296                 btfsc row,0
000232 C??? FF81      00297                 movff row, PORTB
000236 0E01           00298                 movlw d'1'
000238 6E81           00299                 movwf PORTB
00023A EF?? F???      00300                 goto  left_end
                      00301 
Warning[207]: Found label after column 1. (rb_bit_10)
00023E                00302             rb_bit_10:
00023E 46??           00303                 rlncf row
000240 BC??           00304                 btfsc row, 6   ; ; TEST IF BALL AT THE LOWER-BORDER
000242 C??? FF81      00305                 movff row,PORTB
000246 0E20           00306                 movlw d'32' ; TURN ON BOTTOM LED
000248 C??? FF81      00307                 movff row, PORTB
00024C EF?? F???      00308                 goto  left_end
                      00309 
Warning[207]: Found label after column 1. (right_c)
000250                00310         right_c:      ; BALL MOVES FROM PORTB TO PORTC
000250 0E02           00311             movlw  d'2'
000252 6E??           00312             movwf  column_ball
000254 A0D6           00313             btfss  TMR0L, 0
000256 EF?? F???      00314             goto   rc_first_bit_0
00025A A2D6           00315             btfss  TMR0L, 1
00025C EF?? F???      00316             goto   rc_bit_01
000260 EF?? F???      00317             goto   rc_bit_00_11
                      00318 
Warning[207]: Found label after column 1. (rc_first_bit_0)
000264                00319             rc_first_bit_0:
000264 A2D6           00320                 btfss TMR0L, 1
000266 EF?? F???      00321                 goto  rc_bit_00_11
00026A EF?? F???      00322                 goto  rc_bit_10
                      00323 
Warning[207]: Found label after column 1. (rc_bit_00_11)
00026E                00324             rc_bit_00_11:
MPASM 5.61  /HOME/BS06/E2099018/DESKTOP/3-2/   4-6-2018  15:03:59         PAGE  8


LOC  OBJECT CODE     LINE SOURCE TEXT
  VALUE

00026E C??? FF82      00325                 movff row, PORTC
                      00326 
Warning[207]: Found label after column 1. (rc_bit_01)
000272                00327             rc_bit_01:
000272 42??           00328                 rrncf row
000274 B0??           00329                 btfsc row,0
000276 C??? FF82      00330                 movff row, PORTC
00027A 0E01           00331                 movlw d'1'
00027C 6E82           00332                 movwf PORTC
00027E EF?? F???      00333                 goto  left_end
                      00334 
Warning[207]: Found label after column 1. (rc_bit_10)
000282                00335             rc_bit_10:
000282 46??           00336                 rlncf row
000284 BC??           00337                 btfsc row, 6   ; ; TEST IF BALL AT THE LOWER-BORDER
000286 C??? FF82      00338                 movff row,PORTC
00028A 0E20           00339                 movlw d'32' ; TURN ON BOTTOM LED
00028C C??? FF82      00340                 movff row, PORTC
000290 EF?? F???      00341                 goto  left_end
                      00342 
Warning[207]: Found label after column 1. (right_d)
000294                00343         right_d:      ; BALL MOVES FROM PORTC TO PORTD
000294 0E03           00344             movlw  d'3'
000296 6E??           00345             movwf  column_ball
000298 A0D6           00346             btfss  TMR0L, 0
00029A EF?? F???      00347             goto   rd_first_bit_0
00029E A2D6           00348             btfss  TMR0L, 1
0002A0 EF?? F???      00349             goto   rd_bit_01
0002A4 EF?? F???      00350             goto   rd_bit_00_11
                      00351 
Warning[207]: Found label after column 1. (rd_first_bit_0)
0002A8                00352             rd_first_bit_0:
0002A8 A2D6           00353                 btfss TMR0L, 1
0002AA EF?? F???      00354                 goto  rd_bit_00_11
0002AE EF?? F???      00355                 goto  rd_bit_10
                      00356 
Warning[207]: Found label after column 1. (rd_bit_00_11)
0002B2                00357             rd_bit_00_11:
0002B2 C??? FF83      00358                 movff row, PORTD
                      00359 
Warning[207]: Found label after column 1. (rd_bit_01)
0002B6                00360             rd_bit_01:
0002B6 42??           00361                 rrncf row
0002B8 B0??           00362                 btfsc row,0
0002BA C??? FF83      00363                 movff row, PORTD
0002BE 0E01           00364                 movlw d'1'
0002C0 6E83           00365                 movwf PORTD
0002C2 EF?? F???      00366                 goto  left_end
                      00367 
Warning[207]: Found label after column 1. (rd_bit_10)
0002C6                00368             rd_bit_10:
0002C6 46??           00369                 rlncf row
0002C8 BC??           00370                 btfsc row, 6   ; ; TEST IF BALL AT THE LOWER-BORDER
MPASM 5.61  /HOME/BS06/E2099018/DESKTOP/3-2/   4-6-2018  15:03:59         PAGE  9


LOC  OBJECT CODE     LINE SOURCE TEXT
  VALUE

0002CA C??? FF83      00371                 movff row,PORTD
0002CE 0E20           00372                 movlw d'32' ; TURN ON BOTTOM LED
0002D0 C??? FF83      00373                 movff row, PORTD
0002D4 EF?? F???      00374                 goto  left_end
                      00375 
Warning[207]: Found label after column 1. (right_e)
0002D8                00376         right_e:      ; BALL MOVES FROM PORTD TO PORTE
0002D8 0E04           00377             movlw  d'4'
0002DA 6E??           00378             movwf  column_ball
0002DC A0D6           00379             btfss  TMR0L, 0
0002DE EF?? F???      00380             goto   re_first_bit_0
0002E2 A2D6           00381             btfss  TMR0L, 1
0002E4 EF?? F???      00382             goto   re_bit_01
0002E8 EF?? F???      00383             goto   re_bit_00_11
                      00384 
Warning[207]: Found label after column 1. (re_first_bit_0)
0002EC                00385             re_first_bit_0:
0002EC A2D6           00386                 btfss TMR0L, 1
0002EE EF?? F???      00387                 goto  re_bit_00_11
0002F2 EF?? F???      00388                 goto  re_bit_10
                      00389 
Warning[207]: Found label after column 1. (re_bit_00_11)
0002F6                00390             re_bit_00_11:
0002F6 C??? FF84      00391                 movff row, PORTE
                      00392 
Warning[207]: Found label after column 1. (re_bit_01)
0002FA                00393             re_bit_01:
0002FA 42??           00394                 rrncf row
0002FC B0??           00395                 btfsc row,0
0002FE C??? FF84      00396                 movff row, PORTE
000302 0E01           00397                 movlw d'1'
000304 6E84           00398                 movwf PORTE
000306 EF?? F???      00399                 goto  left_end
                      00400 
Warning[207]: Found label after column 1. (re_bit_10)
00030A                00401             re_bit_10:
00030A 46??           00402                 rlncf row
00030C BC??           00403                 btfsc row, 6   ; ; TEST IF BALL AT THE LOWER-BORDER
00030E C??? FF84      00404                 movff row,PORTE
000312 0E20           00405                 movlw d'32' ; TURN ON BOTTOM LED
000314 C??? FF84      00406                 movff row, PORTE
000318 EF?? F???      00407                 goto  left_end
                      00408 
Warning[207]: Found label after column 1. (right_f)
00031C                00409         right_f:      ; BALL MOVES FROM PORTE TO PORTF
00031C 0E05           00410             movlw  d'5'
00031E 6E??           00411             movwf  column_ball
000320 A0D6           00412             btfss  TMR0L, 0
000322 EF?? F???      00413             goto   rf_first_bit_0
000326 A2D6           00414             btfss  TMR0L, 1
000328 EF?? F???      00415             goto   rf_bit_01
00032C EF?? F???      00416             goto   rf_bit_00_11
                      00417 
MPASM 5.61  /HOME/BS06/E2099018/DESKTOP/3-2/   4-6-2018  15:03:59         PAGE 10


LOC  OBJECT CODE     LINE SOURCE TEXT
  VALUE

Warning[207]: Found label after column 1. (rf_first_bit_0)
000330                00418             rf_first_bit_0:
000330 A2D6           00419                 btfss TMR0L, 1
000332 EF?? F???      00420                 goto  rf_bit_00_11
000336 EF?? F???      00421                 goto  rf_bit_10
                      00422 
Warning[207]: Found label after column 1. (rf_bit_00_11)
00033A                00423             rf_bit_00_11:
00033A 50??           00424                 movf   row, w
00033C 1485           00425                 andwf  PORTF, w
00033E B4D8           00426                 btfsc  STATUS, 2
000340 EF?? F???      00427                 goto   left_scored
000344 70??           00428                 btg    direction,0
000346 EF?? F???      00429                 goto   left_e
                      00430 
Warning[207]: Found label after column 1. (rf_bit_01)
00034A                00431             rf_bit_01:
00034A 42??           00432                 rrncf row
00034C B0??           00433                 btfsc row,0
00034E 2A??           00434                 incf  row
000350 50??           00435                 movf  row, w
000352 1485           00436                 andwf PORTF, w
000354 B4D8           00437                 btfsc STATUS, 2
000356 EF?? F???      00438                 goto  left_scored
00035A 70??           00439                 btg   direction, 0
00035C EF?? F???      00440                 goto  left_e
                      00441 
Warning[207]: Found label after column 1. (rf_bit_10)
000360                00442             rf_bit_10:
000360 46??           00443                 rlncf row
000362 0E20           00444                 movlw d'32'
000364 BC??           00445                 btfsc row, 6   ; TEST IF BALL AT THE LOWER-BORDER
000366 6E??           00446                 movwf row
000368 50??           00447                 movf  row, w
00036A 1485           00448                 andwf PORTF, w
00036C B4D8           00449                 btfsc STATUS, 2
00036E EF?? F???      00450                 goto  left_scored
000372 70??           00451                 btg   direction,0
000374 EF?? F???      00452                 goto  left_e
                      00453 
Warning[207]: Found label after column 1. (left_end)
000378                00454     left_end
                      00455 
000378 0012           00456     return
00037A                00457 display:
                      00458 
                      00459 
                      00460 ; CHECK WHETHER THE BUTTONS RG1 AND RG0 IS PRESSED    
00037A                00461 paddle_1: 
                      00462     ;CHECK RG1 IS PRESSED
00037A B0??           00463     btfsc s_1_up,0
00037C D???           00464     bra RG1_pressed
Warning[207]: Found label after column 1. (RG1_released)
MPASM 5.61  /HOME/BS06/E2099018/DESKTOP/3-2/   4-6-2018  15:03:59         PAGE 11


LOC  OBJECT CODE     LINE SOURCE TEXT
  VALUE

00037E                00465     RG1_released: ; IT WAS NOT PRESSED
00037E A286           00466         btfss PORTG,1 ; IT IS NOW PRESSED ?
000380 D???           00467         bra RG1_end
000382 80??           00468         bsf move_up_1,0
000384 80??           00469         bsf s_1_up,0
000386 D???           00470         bra RG1_end
                      00471     
Warning[207]: Found label after column 1. (RG1_pressed)
000388                00472     RG1_pressed: ; IT WAS PRESSED
000388 B286           00473         btfsc PORTG,1 ; IT IS NOW RELEASED ?
00038A D???           00474         bra RG1_end
00038C 90??           00475         bcf s_1_up,0
                      00476         
Warning[207]: Found label after column 1. (RG1_end)
00038E                00477     RG1_end:
                      00478     ;CHECK RG0 IS PRESSED
00038E B0??           00479     btfsc s_1_down,0
000390 D???           00480     bra RG0_pressed
                      00481     
Warning[207]: Found label after column 1. (RG0_released)
000392                00482     RG0_released: ; IN THE PREVIOUS STATE RG0 IS NOT PRESSED
000392 A086           00483         btfss PORTG,0
000394 D???           00484         bra RGA_end
000396 80??           00485         bsf move_down_1,0
000398 80??           00486         bsf s_1_down,0
00039A D???           00487         bra RGA_end
                      00488     
Warning[207]: Found label after column 1. (RG0_pressed)
00039C                00489     RG0_pressed:  ; IN THE PREVIOUS STATE RG0 IS  PRESSED
00039C B086           00490         btfsc PORTG,0
00039E D???           00491         bra RGA_end
0003A0 90??           00492         bcf s_1_down,0
                      00493         
Warning[207]: Found label after column 1. (RGA_end)
0003A2                00494     RGA_end:
                      00495     
0003A2 EC?? F???      00496     call paddle_1_led_task ; MOVE THE PADDLE UP OR DOWN
                      00497     
0003A6 0012           00498     return 
                      00499 
Warning[207]: Found label after column 1. (paddle_1_led_task)
0003A8                00500     paddle_1_led_task:            ;MOVE THE PADDLE1 ACCORDING TO THE FLAGS
0003A8 A0??           00501         btfss move_up_1, 0
0003AA EF?? F???      00502         goto  move_paddle1_down   ; MOVE UP FLAG IS NOT SET CHECK THE DOWN
Warning[207]: Found label after column 1. (move_paddle1_up)
0003AE                00503         move_paddle1_up:
0003AE B080           00504             btfsc PORTA, 0
0003B0 EF?? F???      00505             goto  move_paddle1_end; PADDLE CANNOT MOVE UP FURTHER
0003B4 4280           00506             rrncf PORTA           ; MOVE THE PADDLE UP
0003B6 EF?? F???      00507             goto  move_paddle1_end
                      00508             
Warning[207]: Found label after column 1. (move_paddle1_down)
0003BA                00509         move_paddle1_down:
MPASM 5.61  /HOME/BS06/E2099018/DESKTOP/3-2/   4-6-2018  15:03:59         PAGE 12


LOC  OBJECT CODE     LINE SOURCE TEXT
  VALUE

0003BA A0??           00510             btfss move_down_1,0  ; CHECK WHETHER THE DOWN FLAG IS SET
0003BC EF?? F???      00511             goto  move_paddle1_end
0003C0 BA80           00512             btfsc PORTA, 5       ; PADDLE1 CANNOT MOVE DOWN FURTHER
0003C2 EF?? F???      00513             goto  move_paddle1_end
0003C6 4680           00514             rlncf PORTA          ; MOVE THE PADDLE DOWN
                      00515 
Warning[207]: Found label after column 1. (move_paddle1_end)
0003C8                00516         move_paddle1_end:
0003C8 90??           00517             bcf   move_down_1, 0 ; WE CLEAR UP_DOWN FLAGS SO THAT WE WILL WAIT ANOTHER PRESS TO MOVE UP 
                            OR DOWN
0003CA 90??           00518             bcf   move_up_1, 0   ; WE WILL IGNORE THE PREVIOUS RG1(UP) PRESS
0003CC 0012           00519             return
                      00520             
                      00521 ; CHECK WHETHER THE BUTTONS RG3 AND RG2 IS PRESSED      
0003CE                00522 paddle_2:
                      00523     ;CHECK RG3 IS PRESSED
0003CE B0??           00524     btfsc s_2_up,0
0003D0 D???           00525     bra RG3_pressed
Warning[207]: Found label after column 1. (RG3_released)
0003D2                00526     RG3_released:
0003D2 A686           00527         btfss PORTG,3
0003D4 D???           00528         bra RG3_end
0003D6 80??           00529         bsf move_up_2,0
0003D8 80??           00530         bsf s_2_up,0
0003DA D???           00531         bra RG3_end
                      00532     
Warning[207]: Found label after column 1. (RG3_pressed)
0003DC                00533     RG3_pressed:
0003DC B686           00534         btfsc PORTG,3
0003DE D???           00535         bra RG3_end
0003E0 90??           00536         bcf s_2_up,0 ; RG3 IS RELEASED SO STATE FOR RG3 = 0
                      00537         
Warning[207]: Found label after column 1. (RG3_end)
0003E2                00538     RG3_end:        ;   CHECK RG2 IS PRESSED
0003E2 B0??           00539         btfsc s_2_down,0
0003E4 D???           00540         bra RG2_pressed
                      00541     
Warning[207]: Found label after column 1. (RG2_released)
0003E6                00542     RG2_released: ; IN THE PREVIOUS STATE RG2 IS NOT PRESSED
0003E6 A486           00543         btfss PORTG,2
0003E8 D???           00544         bra RGF_end
0003EA 80??           00545         bsf move_down_2,0
0003EC 80??           00546         bsf s_2_down,0
0003EE D???           00547         bra RGF_end
                      00548     
Warning[207]: Found label after column 1. (RG2_pressed)
0003F0                00549     RG2_pressed:  ; IN THE PREVIOUS STATE RG2 IS  PRESSED
0003F0 B486           00550         btfsc PORTG,2
0003F2 D???           00551         bra RGF_end
0003F4 90??           00552         bcf s_2_down,0 ; RG2 IS RELEASED SO STATE=0
                      00553         
Warning[207]: Found label after column 1. (RGF_end)
0003F6                00554     RGF_end:
MPASM 5.61  /HOME/BS06/E2099018/DESKTOP/3-2/   4-6-2018  15:03:59         PAGE 13


LOC  OBJECT CODE     LINE SOURCE TEXT
  VALUE

                      00555     
0003F6 EC?? F???      00556     call paddle_2_led_task ; MOVE THE PADDLE UP OR DOWN
                      00557     
0003FA 0012           00558     return 
                      00559 
Warning[207]: Found label after column 1. (paddle_2_led_task)
0003FC                00560     paddle_2_led_task: ;MOVE THE PADDLE2 ACCORDING TO THE FLAGS
0003FC A0??           00561         btfss move_up_2, 0
0003FE EF?? F???      00562         goto  move_paddle2_down ; MOVE UP FLAG IS NOT SET, CHECK THE DOWN
Warning[207]: Found label after column 1. (move_paddle2_up)
000402                00563         move_paddle2_up:
000402 B085           00564             btfsc PORTF, 0
000404 EF?? F???      00565             goto  move_paddle2_end;  PADDLE CANNOT MOVE UP FURTHER
000408 4285           00566             rrncf PORTF ; MOVE THE PADDLE UP
00040A EF?? F???      00567             goto  move_paddle2_end
                      00568             
Warning[207]: Found label after column 1. (move_paddle2_down)
00040E                00569         move_paddle2_down:
00040E A0??           00570             btfss move_down_2,0 ; CHECK WHETHER THE DOWN FLAG IS SET
000410 EF?? F???      00571             goto  move_paddle2_end
000414 BA85           00572             btfsc PORTF, 5       ; PADDLE CANNOT MOVE DOWN FURTHER
000416 EF?? F???      00573             goto  move_paddle2_end
00041A 4685           00574             rlncf PORTF         ; MOVE THE PADDLE DOWN
                      00575             
Warning[207]: Found label after column 1. (move_paddle2_end)
00041C                00576         move_paddle2_end:
00041C 90??           00577             bcf   move_up_2, 0   ; WE CLEAR UP_DOWN FLAGS SO THAT WE WILL WAIT ANOTHER PRESS TO MOVE UP 
                            OR DOWN
00041E 90??           00578             bcf   move_down_2, 0 ; WE WILL IGNORE THE PREVIOUS RG2 PRESS
000420 0012           00579             return
                      00580 
                      00581 
000422                00582 right_scored:
                      00583 
000422                00584 left_scored:
                      00585             
000422                00586 INIT
000422 0E0F           00587     MOVLW   b'00001111'
000424 6E98           00588     MOVWF   TRISG ; MAKE RG0-RG1-RG2-RG3 PORTS(PINS) INPUT
000426 6A92           00589     CLRF    TRISA  ; MAKE PORTA AS OUTPUT
000428 6A97           00590     CLRF    TRISF  ; MAKE PORTF AS OUTPUT
                      00591 
00042A 0E0F           00592     MOVLW   0X0F
00042C 6EC1           00593     MOVWF   ADCON1 ; MAKE PORTA DIGITAL OUTPUT
00042E 0E1C           00594     MOVLW   b'00011100' ; TURN ON THE FIRST LEDS
000430 6E80           00595     MOVWF   PORTA
000432 6E85           00596     MOVWF   PORTF
000434 6A??           00597     CLRF    move_ball_flag
000436 6A??           00598     CLRF    s_1_up
000438 6A??           00599     CLRF    s_2_up   
00043A 6A??           00600     CLRF    s_1_down 
00043C 6A??           00601     CLRF    s_2_down
00043E 6A??           00602     CLRF    move_up_1
MPASM 5.61  /HOME/BS06/E2099018/DESKTOP/3-2/   4-6-2018  15:03:59         PAGE 14


LOC  OBJECT CODE     LINE SOURCE TEXT
  VALUE

000440 6A??           00603     CLRF    move_down_1
000442 6A??           00604     CLRF    move_up_2
000444 6A??           00605     CLRF    move_down_2
000446 6A??           00606     CLRF    left_score
000448 6A??           00607     CLRF    right_score
00044A 0E2E           00608     MOVLW   d'46'
00044C 6E??           00609     MOVWF   Yok_olan46
00044E 6AF2           00610     CLRF    INTCON ;
000450 0EC7           00611     MOVLW   b'11000111'
000452 6ED5           00612     MOVWF   T0CON
000454 8AF2           00613     BSF     INTCON, 5
000456 8EF2           00614     BSF     INTCON, 7; ENABLE INTERRUPTS
000458 0012           00615     return
                      00616     
                      00617     END
MPASM 5.61  /HOME/BS06/E2099018/DESKTOP/3-2/   4-6-2018  15:03:59         PAGE 15


SYMBOL TABLE
  LABEL                             VALUE 

A                                 00000000
A16                               00000000
A17                               00000001
A18                               00000002
A19                               00000003
ABDEN                             00000000
ABDEN1                            00000000
ABDEN2                            00000000
ABDOVF                            00000007
ABDOVF1                           00000007
ABDOVF2                           00000007
ACCESS                            00000000
ACKDT                             00000005
ACKDT2                            00000005
ACKEN                             00000004
ACKEN2                            00000004
ACKSTAT                           00000006
ACKSTAT2                          00000006
ACQT0                             00000003
ACQT1                             00000004
ACQT2                             00000005
AD0                               00000000
AD1                               00000001
AD10                              00000002
AD11                              00000003
AD12                              00000004
AD13                              00000005
AD14                              00000006
AD15                              00000007
AD2                               00000002
AD3                               00000003
AD4                               00000004
AD5                               00000005
AD6                               00000006
AD7                               00000007
AD8                               00000000
AD9                               00000001
ADCON0                            00000FC2
ADCON1                            00000FC1
ADCON2                            00000FC0
ADCS0                             00000000
ADCS1                             00000001
ADCS2                             00000002
ADDEN                             00000003
ADDEN1                            00000003
ADDEN2                            00000003
ADFM                              00000007
ADIE                              00000006
ADIF                              00000006
ADIP                              00000006
ADON                              00000000
ADRES                             00000FC3
ADRESH                            00000FC4
MPASM 5.61  /HOME/BS06/E2099018/DESKTOP/3-2/   4-6-2018  15:03:59         PAGE 16


SYMBOL TABLE
  LABEL                             VALUE 

ADRESL                            00000FC3
ALE                               00000000
AN0                               00000000
AN1                               00000001
AN10                              00000005
AN11                              00000006
AN12                              00000004
AN13                              00000005
AN14                              00000006
AN15                              00000007
AN2                               00000002
AN3                               00000003
AN4                               00000005
AN5                               00000000
AN6                               00000001
AN7                               00000002
AN8                               00000003
AN9                               00000004
BA0                               00000004
BANKED                            00000001
BAUDCON                           00000F7E
BAUDCON1                          00000F7E
BAUDCON2                          00000F7C
BCL1IE                            00000003
BCL1IF                            00000003
BCL1IP                            00000003
BCL2IE                            00000006
BCL2IF                            00000006
BCL2IP                            00000006
BCLIE                             00000003
BCLIF                             00000003
BCLIP                             00000003
BF                                00000000
BF2                               00000000
BGST                              00000005
BOR                               00000000
BRG16                             00000003
BRG161                            00000003
BRG162                            00000003
BRGH                              00000002
BRGH1                             00000002
BRGH2                             00000002
BSR                               00000FE0
C                                 00000000
C1INV                             00000004
C1OUT_CMCON                       00000006
C1OUT_PORTF                       00000002
C2INV                             00000005
C2OUT_CMCON                       00000007
C2OUT_PORTF                       00000001
CCP1                              00000002
CCP1CON                           00000FBD
CCP1IE                            00000002
MPASM 5.61  /HOME/BS06/E2099018/DESKTOP/3-2/   4-6-2018  15:03:59         PAGE 17


SYMBOL TABLE
  LABEL                             VALUE 

CCP1IF                            00000002
CCP1IP                            00000002
CCP1M0                            00000000
CCP1M1                            00000001
CCP1M2                            00000002
CCP1M3                            00000003
CCP1X                             00000005
CCP1Y                             00000004
CCP2CON                           00000FBA
CCP2IE                            00000000
CCP2IF                            00000000
CCP2IP                            00000000
CCP2M0                            00000000
CCP2M1                            00000001
CCP2M2                            00000002
CCP2M3                            00000003
CCP2X                             00000005
CCP2Y                             00000004
CCP2_PORTB                        00000003
CCP2_PORTC                        00000001
CCP2_PORTE                        00000007
CCP3                              00000000
CCP3CON                           00000FB7
CCP3IE                            00000000
CCP3IF                            00000000
CCP3IP                            00000000
CCP3M0                            00000000
CCP3M1                            00000001
CCP3M2                            00000002
CCP3M3                            00000003
CCP3X                             00000005
CCP3Y                             00000004
CCP4                              00000003
CCP4CON                           00000F73
CCP4IE                            00000001
CCP4IF                            00000001
CCP4IP                            00000001
CCP4M0                            00000000
CCP4M1                            00000001
CCP4M2                            00000002
CCP4M3                            00000003
CCP5                              00000004
CCP5CON                           00000F70
CCP5IE                            00000002
CCP5IF                            00000002
CCP5IP                            00000002
CCP5M0                            00000000
CCP5M1                            00000001
CCP5M2                            00000002
CCP5M3                            00000003
CCPR1                             00000FBE
CCPR1H                            00000FBF
CCPR1L                            00000FBE
MPASM 5.61  /HOME/BS06/E2099018/DESKTOP/3-2/   4-6-2018  15:03:59         PAGE 18


SYMBOL TABLE
  LABEL                             VALUE 

CCPR2                             00000FBB
CCPR2H                            00000FBC
CCPR2L                            00000FBB
CCPR3                             00000FB8
CCPR3H                            00000FB9
CCPR3L                            00000FB8
CCPR4                             00000F74
CCPR4H                            00000F75
CCPR4L                            00000F74
CCPR5                             00000F71
CCPR5H                            00000F72
CCPR5L                            00000F71
CE                                00000005
CFGS                              00000006
CHS0                              00000002
CHS1                              00000003
CHS2                              00000004
CHS3                              00000005
CIS                               00000003
CK                                00000006
CK1                               00000006
CK2                               00000001
CKE                               00000006
CKE2                              00000006
CKP                               00000004
CKP2                              00000004
CM0                               00000000
CM1                               00000001
CM2                               00000002
CMCON                             00000FB4
CMIE                              00000006
CMIF                              00000006
CMIP                              00000006
CREN                              00000004
CREN1                             00000004
CREN2                             00000004
CS                                00000002
CSRC                              00000007
CSRC1                             00000007
CSRC2                             00000007
CVR0                              00000000
CVR1                              00000001
CVR2                              00000002
CVR3                              00000003
CVRCON                            00000FB5
CVREF                             00000005
CVREN                             00000007
CVROE                             00000006
CVRR                              00000005
CVRSS                             00000004
D                                 00000005
DA2                               00000005
DATA_ADDRESS                      00000005
MPASM 5.61  /HOME/BS06/E2099018/DESKTOP/3-2/   4-6-2018  15:03:59         PAGE 19


SYMBOL TABLE
  LABEL                             VALUE 

DC                                00000001
DC1B0                             00000004
DC1B1                             00000005
DC2B0                             00000004
DC2B1                             00000005
DC3B0                             00000004
DC3B1                             00000005
DC4B0                             00000004
DC4B1                             00000005
DC5B0                             00000004
DC5B1                             00000005
DCCP4X                            00000005
DCCP4Y                            00000004
DCCP5X                            00000005
DCCP5Y                            00000004
DDRA                              TRISA
DDRB                              TRISB
DDRC                              TRISC
DDRD                              TRISD
DDRE                              TRISE
DDRF                              00000F97
DDRG                              00000F98
DDRH                              00000F99
DDRJ                              00000F9A
DONE                              00000001
DT1                               00000007
DT2                               00000002
D_A                               00000005
D_NOT_A                           00000005
EBDIS                             00000007
ECCP1                             00000002
ECCP1AS                           00000FB6
ECCP1AS0                          00000004
ECCP1AS1                          00000005
ECCP1AS2                          00000006
ECCP1ASE                          00000007
ECCP1CON                          00000FBD
ECCP1DEL                          00000F79
ECCP2AS                           00000F68
ECCP2AS0                          00000004
ECCP2AS1                          00000005
ECCP2AS2                          00000006
ECCP2ASE                          00000007
ECCP2CON                          00000FBA
ECCP2DEL                          00000F67
ECCP2_PORTB                       00000003
ECCP2_PORTC                       00000001
ECCP2_PORTE                       00000007
ECCP3                             00000000
ECCP3AS                           00000F6A
ECCP3AS0                          00000004
ECCP3AS1                          00000005
ECCP3AS2                          00000006
MPASM 5.61  /HOME/BS06/E2099018/DESKTOP/3-2/   4-6-2018  15:03:59         PAGE 20


SYMBOL TABLE
  LABEL                             VALUE 

ECCP3ASE                          00000007
ECCP3CON                          00000FB7
ECCP3DEL                          00000F69
ECCPAS0                           00000004
ECCPAS1                           00000005
ECCPAS2                           00000006
ECCPASE                           00000007
EEADR                             00000FA9
EEADRH                            00000FAA
EECON1                            00000FA6
EECON2                            00000FA7
EEDATA                            00000FA8
EEIE                              00000004
EEIF                              00000004
EEIP                              00000004
EEPGD                             00000007
FAST                              00000001
FERR                              00000002
FERR1                             00000002
FERR2                             00000002
FLT0                              00000000
FLTS                              00000002
FREE                              00000004
FSR0                              00000000
FSR0H                             00000FEA
FSR0L                             00000FE9
FSR1                              00000001
FSR1H                             00000FE2
FSR1L                             00000FE1
FSR2                              00000002
FSR2H                             00000FDA
FSR2L                             00000FD9
GCEN                              00000007
GCEN2                             00000007
GIE                               00000007
GIEH                              00000007
GIEL                              00000006
GIE_GIEH                          00000007
GO                                00000001
GO_DONE                           00000001
GO_NOT_DONE                       00000001
HIGH_ISR                          0000000C
HLVDCON                           00000FD2
HLVDEN                            00000004
HLVDIE                            00000002
HLVDIF                            00000002
HLVDIN                            00000005
HLVDIP                            00000002
HLVDL0                            00000000
HLVDL1                            00000001
HLVDL2                            00000002
HLVDL3                            00000003
I2C_DAT                           00000005
MPASM 5.61  /HOME/BS06/E2099018/DESKTOP/3-2/   4-6-2018  15:03:59         PAGE 21


SYMBOL TABLE
  LABEL                             VALUE 

I2C_READ                          00000002
I2C_START                         00000003
I2C_STOP                          00000004
IBF                               00000007
IBOV                              00000005
IDLEN                             00000007
INDF0                             00000FEF
INDF1                             00000FE7
INDF2                             00000FDF
INIT                              00000422
INT0                              00000000
INT0E                             00000004
INT0F                             00000001
INT0IE                            00000004
INT0IF                            00000001
INT1                              00000001
INT1E                             00000003
INT1F                             00000000
INT1IE                            00000003
INT1IF                            00000000
INT1IP                            00000006
INT1P                             00000006
INT2                              00000002
INT2E                             00000004
INT2F                             00000001
INT2IE                            00000004
INT2IF                            00000001
INT2IP                            00000007
INT2P                             00000007
INT3                              00000003
INT3E                             00000005
INT3F                             00000002
INT3IE                            00000005
INT3IF                            00000002
INT3IP                            00000001
INT3P                             00000001
INTCON                            00000FF2
INTCON2                           00000FF1
INTCON3                           00000FF0
INTEDG0                           00000006
INTEDG1                           00000005
INTEDG2                           00000004
INTEDG3                           00000003
INTSRC                            00000007
IOFS                              00000002
IPEN                              00000007
IPR1                              00000F9F
IPR2                              00000FA2
IPR3                              00000FA5
IRCF0                             00000004
IRCF1                             00000005
IRCF2                             00000006
IRVST                             00000005
MPASM 5.61  /HOME/BS06/E2099018/DESKTOP/3-2/   4-6-2018  15:03:59         PAGE 22


SYMBOL TABLE
  LABEL                             VALUE 

IVRST                             00000005
KBI0                              00000004
KBI1                              00000005
KBI2                              00000006
KBI3                              00000007
LATA                              00000F89
LATA0                             00000000
LATA1                             00000001
LATA2                             00000002
LATA3                             00000003
LATA4                             00000004
LATA5                             00000005
LATA6                             00000006
LATA7                             00000007
LATB                              00000F8A
LATB0                             00000000
LATB1                             00000001
LATB2                             00000002
LATB3                             00000003
LATB4                             00000004
LATB5                             00000005
LATB6                             00000006
LATB7                             00000007
LATC                              00000F8B
LATC0                             00000000
LATC1                             00000001
LATC2                             00000002
LATC3                             00000003
LATC4                             00000004
LATC5                             00000005
LATC6                             00000006
LATC7                             00000007
LATD                              00000F8C
LATD0                             00000000
LATD1                             00000001
LATD2                             00000002
LATD3                             00000003
LATD4                             00000004
LATD5                             00000005
LATD6                             00000006
LATD7                             00000007
LATE                              00000F8D
LATE0                             00000000
LATE1                             00000001
LATE2                             00000002
LATE3                             00000003
LATE4                             00000004
LATE5                             00000005
LATE6                             00000006
LATE7                             00000007
LATF                              00000F8E
LATF0                             00000000
LATF1                             00000001
MPASM 5.61  /HOME/BS06/E2099018/DESKTOP/3-2/   4-6-2018  15:03:59         PAGE 23


SYMBOL TABLE
  LABEL                             VALUE 

LATF2                             00000002
LATF3                             00000003
LATF4                             00000004
LATF5                             00000005
LATF6                             00000006
LATF7                             00000007
LATG                              00000F8F
LATG0                             00000000
LATG1                             00000001
LATG2                             00000002
LATG3                             00000003
LATG4                             00000004
LATG5                             00000005
LATH                              00000F90
LATH0                             00000000
LATH1                             00000001
LATH2                             00000002
LATH3                             00000003
LATH4                             00000004
LATH5                             00000005
LATH6                             00000006
LATH7                             00000007
LATJ                              00000F91
LATJ0                             00000000
LATJ1                             00000001
LATJ2                             00000002
LATJ3                             00000003
LATJ4                             00000004
LATJ5                             00000005
LATJ6                             00000006
LATJ7                             00000007
LB                                00000006
LVDCON                            00000FD2
LVDEN                             00000004
LVDIE                             00000002
LVDIF                             00000002
LVDIN                             00000005
LVDIP                             00000002
LVDL0                             00000000
LVDL1                             00000001
LVDL2                             00000002
LVDL3                             00000003
LVV0                              00000000
LVV1                              00000001
LVV2                              00000002
LVV3                              00000003
MCLR                              00000005
MEMCON                            00000F9C
N                                 00000004
NOT_A                             00000005
NOT_ADDRESS                       00000005
NOT_BOR                           00000000
NOT_CE                            00000005
MPASM 5.61  /HOME/BS06/E2099018/DESKTOP/3-2/   4-6-2018  15:03:59         PAGE 24


SYMBOL TABLE
  LABEL                             VALUE 

NOT_CS                            00000002
NOT_DONE                          00000001
NOT_LB                            00000006
NOT_MCLR                          00000005
NOT_OE                            00000001
NOT_PD                            00000002
NOT_POR                           00000001
NOT_RBPU                          00000007
NOT_RC8                           00000006
NOT_RD                            00000000
NOT_RI                            00000004
NOT_SS1                           00000007
NOT_SS2                           00000007
NOT_T1SYNC                        00000002
NOT_T3SYNC                        00000002
NOT_TO                            00000003
NOT_TX8                           00000006
NOT_UB                            00000007
NOT_W                             00000002
NOT_WR                            00000001
NOT_WRH                           00000003
NOT_WRITE                         00000002
NOT_WRL                           00000002
OBF                               00000006
OE                                00000001
OERR                              00000001
OERR1                             00000001
OERR2                             00000001
OSCCON                            00000FD3
OSCFIE                            00000007
OSCFIF                            00000007
OSCFIP                            00000007
OSCTUNE                           00000F9B
OSTS                              00000003
OV                                00000003
P                                 00000004
P1A                               00000002
P1B_PORTE                         00000006
P1B_PORTH                         00000007
P1C_PORTE                         00000005
P1C_PORTH                         00000006
P1D                               00000004
P1DC0                             00000000
P1DC1                             00000001
P1DC2                             00000002
P1DC3                             00000003
P1DC4                             00000004
P1DC5                             00000005
P1DC6                             00000006
P1M0                              00000006
P1M1                              00000007
P1RSEN                            00000007
P2A_PORTB                         00000003
MPASM 5.61  /HOME/BS06/E2099018/DESKTOP/3-2/   4-6-2018  15:03:59         PAGE 25


SYMBOL TABLE
  LABEL                             VALUE 

P2A_PORTC                         00000001
P2A_PORTE                         00000007
P2B                               00000002
P2C                               00000001
P2D                               00000000
P2DC0                             00000000
P2DC1                             00000001
P2DC2                             00000002
P2DC3                             00000003
P2DC4                             00000004
P2DC5                             00000005
P2DC6                             00000006
P2M0                              00000006
P2M1                              00000007
P2RSEN                            00000007
P3A                               00000000
P3B_PORTE                         00000004
P3B_PORTH                         00000005
P3C_PORTE                         00000003
P3C_PORTH                         00000004
P3D                               00000003
P3DC0                             00000000
P3DC1                             00000001
P3DC2                             00000002
P3DC3                             00000003
P3DC4                             00000004
P3DC5                             00000005
P3DC6                             00000006
P3M0                              00000006
P3M1                              00000007
P3RSEN                            00000007
PC                                00000FF9
PCFG0                             00000000
PCFG1                             00000001
PCFG2                             00000002
PCFG3                             00000003
PCL                               00000FF9
PCLATH                            00000FFA
PCLATU                            00000FFB
PD                                00000002
PDC0                              00000000
PDC1                              00000001
PDC2                              00000002
PDC3                              00000003
PDC4                              00000004
PDC5                              00000005
PDC6                              00000006
PEIE                              00000006
PEIE_GIEL                         00000006
PEN                               00000002
PEN2                              00000002
PIE1                              00000F9D
PIE2                              00000FA0
MPASM 5.61  /HOME/BS06/E2099018/DESKTOP/3-2/   4-6-2018  15:03:59         PAGE 26


SYMBOL TABLE
  LABEL                             VALUE 

PIE3                              00000FA3
PIR1                              00000F9E
PIR2                              00000FA1
PIR3                              00000FA4
PLLEN                             00000006
PLUSW0                            00000FEB
PLUSW1                            00000FE3
PLUSW2                            00000FDB
POR                               00000001
PORTA                             00000F80
PORTB                             00000F81
PORTC                             00000F82
PORTD                             00000F83
PORTE                             00000F84
PORTF                             00000F85
PORTG                             00000F86
PORTH                             00000F87
PORTJ                             00000F88
POSTDEC0                          00000FED
POSTDEC1                          00000FE5
POSTDEC2                          00000FDD
POSTINC0                          00000FEE
POSTINC1                          00000FE6
POSTINC2                          00000FDE
PR2                               00000FCB
PR4                               00000F77
PREINC0                           00000FEC
PREINC1                           00000FE4
PREINC2                           00000FDC
PROD                              00000FF3
PRODH                             00000FF4
PRODL                             00000FF3
PRSEN                             00000007
PSA                               00000003
PSP0                              00000000
PSP1                              00000001
PSP2                              00000002
PSP3                              00000003
PSP4                              00000004
PSP5                              00000005
PSP6                              00000006
PSP7                              00000007
PSPCON                            00000FB0
PSPIE                             00000007
PSPIF                             00000007
PSPIP                             00000007
PSPMODE                           00000004
PSS1AC0                           00000002
PSS1AC1                           00000003
PSS1BD0                           00000000
PSS1BD1                           00000001
PSS2AC0                           00000002
PSS2AC1                           00000003
MPASM 5.61  /HOME/BS06/E2099018/DESKTOP/3-2/   4-6-2018  15:03:59         PAGE 27


SYMBOL TABLE
  LABEL                             VALUE 

PSS2BD0                           00000000
PSS2BD1                           00000001
PSS3AC0                           00000002
PSS3AC1                           00000003
PSS3BD0                           00000000
PSS3BD1                           00000001
PSSAC0                            00000002
PSSAC1                            00000003
PSSBD0                            00000000
PSSBD1                            00000001
R                                 00000002
RA0                               00000000
RA1                               00000001
RA2                               00000002
RA3                               00000003
RA4                               00000004
RA5                               00000005
RA6                               00000006
RA7                               00000007
RB0                               00000000
RB1                               00000001
RB2                               00000002
RB3                               00000003
RB4                               00000004
RB5                               00000005
RB6                               00000006
RB7                               00000007
RBIE                              00000003
RBIF                              00000000
RBIP                              00000000
RBPU                              00000007
RC0                               00000000
RC1                               00000001
RC1IE                             00000005
RC1IF                             00000005
RC1IP                             00000005
RC2                               00000002
RC2IE                             00000005
RC2IF                             00000005
RC2IP                             00000005
RC3                               00000003
RC4                               00000004
RC5                               00000005
RC6                               00000006
RC7                               00000007
RC8_9                             00000006
RC9                               00000006
RCD8                              00000000
RCEN                              00000003
RCEN2                             00000003
RCIDL                             00000006
RCIDL1                            00000006
RCIDL2                            00000006
MPASM 5.61  /HOME/BS06/E2099018/DESKTOP/3-2/   4-6-2018  15:03:59         PAGE 28


SYMBOL TABLE
  LABEL                             VALUE 

RCIE                              00000005
RCIF                              00000005
RCIP                              00000005
RCMT                              00000006
RCON                              00000FD0
RCREG                             00000FAE
RCREG1                            00000FAE
RCREG2                            00000F6E
RCSTA                             00000FAB
RCSTA1                            00000FAB
RCSTA2                            00000F6B
RD                                00000000
RD0                               00000000
RD1                               00000001
RD16                              00000007
RD2                               00000002
RD3                               00000003
RD4                               00000004
RD5                               00000005
RD6                               00000006
RD7                               00000007
RE0                               00000000
RE1                               00000001
RE2                               00000002
RE3                               00000003
RE4                               00000004
RE5                               00000005
RE6                               00000006
RE7                               00000007
READ_WRITE                        00000002
RF0                               00000000
RF1                               00000001
RF2                               00000002
RF3                               00000003
RF4                               00000004
RF5                               00000005
RF6                               00000006
RF7                               00000007
RG0                               00000000
RG0_pressed                       0000039C
RG0_released                      00000392
RG1                               00000001
RG1_end                           0000038E
RG1_pressed                       00000388
RG1_released                      0000037E
RG2                               00000002
RG2_pressed                       000003F0
RG2_released                      000003E6
RG3                               00000003
RG3_end                           000003E2
RG3_pressed                       000003DC
RG3_released                      000003D2
RG4                               00000004
MPASM 5.61  /HOME/BS06/E2099018/DESKTOP/3-2/   4-6-2018  15:03:59         PAGE 29


SYMBOL TABLE
  LABEL                             VALUE 

RG5                               00000005
RGA_end                           000003A2
RGF_end                           000003F6
RH0                               00000000
RH1                               00000001
RH2                               00000002
RH3                               00000003
RH4                               00000004
RH5                               00000005
RH6                               00000006
RH7                               00000007
RI                                00000004
RJ0                               00000000
RJ1                               00000001
RJ2                               00000002
RJ3                               00000003
RJ4                               00000004
RJ5                               00000005
RJ6                               00000006
RJ7                               00000007
RSEN                              00000001
RSEN2                             00000001
RW2                               00000002
RX                                00000007
RX1                               00000007
RX2                               00000002
RX9                               00000006
RX91                              00000006
RX92                              00000006
RX9D                              00000000
RX9D1                             00000000
RX9D2                             00000000
R_NOT_W                           00000002
R_W                               00000002
S                                 00000003
SBOREN                            00000006
SCK                               00000003
SCK1                              00000003
SCK2                              00000006
SCKP                              00000004
SCKP1                             00000004
SCKP2                             00000004
SCL                               00000003
SCL1                              00000003
SCL2                              00000006
SCS0                              00000000
SCS1                              00000001
SDA                               00000004
SDA1                              00000004
SDA2                              00000005
SDI                               00000004
SDI1                              00000004
SDI2                              00000005
MPASM 5.61  /HOME/BS06/E2099018/DESKTOP/3-2/   4-6-2018  15:03:59         PAGE 30


SYMBOL TABLE
  LABEL                             VALUE 

SDO                               00000005
SDO1                              00000005
SDO2                              00000004
SEN                               00000000
SEN2                              00000000
SENDB                             00000003
SENDB1                            00000003
SENDB2                            00000003
SMP                               00000007
SMP2                              00000007
SP0                               00000000
SP1                               00000001
SP2                               00000002
SP3                               00000003
SP4                               00000004
SPBRG                             00000FAF
SPBRG1                            00000FAF
SPBRG2                            00000F6F
SPBRGH                            00000F7F
SPBRGH1                           00000F7F
SPBRGH2                           00000F7D
SPEN                              00000007
SPEN1                             00000007
SPEN2                             00000007
SREN                              00000005
SREN1                             00000005
SREN2                             00000005
SS1                               00000007
SS2                               00000007
SSP1ADD                           00000FC8
SSP1BUF                           00000FC9
SSP1CON1                          00000FC6
SSP1CON2                          00000FC5
SSP1IE                            00000003
SSP1IF                            00000003
SSP1IP                            00000003
SSP1STAT                          00000FC7
SSP2ADD                           00000F65
SSP2BUF                           00000F66
SSP2CON1                          00000F63
SSP2CON2                          00000F62
SSP2IE                            00000007
SSP2IF                            00000007
SSP2IP                            00000007
SSP2STAT                          00000F64
SSPADD                            00000FC8
SSPBUF                            00000FC9
SSPCON1                           00000FC6
SSPCON2                           00000FC5
SSPEN                             00000005
SSPEN2                            00000005
SSPIE                             00000003
SSPIF                             00000003
MPASM 5.61  /HOME/BS06/E2099018/DESKTOP/3-2/   4-6-2018  15:03:59         PAGE 31


SYMBOL TABLE
  LABEL                             VALUE 

SSPIP                             00000003
SSPM0                             00000000
SSPM02                            00000000
SSPM1                             00000001
SSPM12                            00000001
SSPM2                             00000002
SSPM22                            00000002
SSPM3                             00000003
SSPM32                            00000003
SSPOV                             00000006
SSPOV2                            00000006
SSPSTAT                           00000FC7
START                             0000001C
START2                            00000003
STATUS                            00000FD8
STKFUL                            00000007
STKOVF                            00000007
STKPTR                            00000FFC
STKPTR0                           00000000
STKPTR1                           00000001
STKPTR2                           00000002
STKPTR3                           00000003
STKPTR4                           00000004
STKUNF                            00000006
STOP2                             00000004
SWDTE                             00000000
SWDTEN                            00000000
SYNC                              00000004
SYNC1                             00000004
SYNC2                             00000004
T08BIT                            00000006
T0CKI                             00000004
T0CON                             00000FD5
T0CS                              00000005
T0IE                              00000005
T0IF                              00000002
T0IP                              00000002
T0PS0                             00000000
T0PS1                             00000001
T0PS2                             00000002
T0PS3                             00000003
T0SE                              00000004
T13CKI                            00000000
T1CKPS0                           00000004
T1CKPS1                           00000005
T1CON                             00000FCD
T1INSYNC                          00000002
T1OSCEN                           00000003
T1OSI                             00000001
T1OSO                             00000000
T1RUN                             00000006
T1SYNC                            00000002
T2CKPS0                           00000000
MPASM 5.61  /HOME/BS06/E2099018/DESKTOP/3-2/   4-6-2018  15:03:59         PAGE 32


SYMBOL TABLE
  LABEL                             VALUE 

T2CKPS1                           00000001
T2CON                             00000FCA
T2OUTPS0                          00000003
T2OUTPS1                          00000004
T2OUTPS2                          00000005
T2OUTPS3                          00000006
T3CCP1                            00000003
T3CCP2                            00000006
T3CKPS0                           00000004
T3CKPS1                           00000005
T3CON                             00000FB1
T3INSYNC                          00000002
T3SYNC                            00000002
T4CKPS0                           00000000
T4CKPS1                           00000001
T4CON                             00000F76
T4OUTPS0                          00000003
T4OUTPS1                          00000004
T4OUTPS2                          00000005
T4OUTPS3                          00000006
TABLAT                            00000FF5
TBLPTR                            00000FF6
TBLPTRH                           00000FF7
TBLPTRL                           00000FF6
TBLPTRU                           00000FF8
TMR0                              00000FD6
TMR0H                             00000FD7
TMR0IE                            00000005
TMR0IF                            00000002
TMR0IP                            00000002
TMR0L                             00000FD6
TMR0ON                            00000007
TMR1                              00000FCE
TMR1CS                            00000001
TMR1H                             00000FCF
TMR1IE                            00000000
TMR1IF                            00000000
TMR1IP                            00000000
TMR1L                             00000FCE
TMR1ON                            00000000
TMR2                              00000FCC
TMR2IE                            00000001
TMR2IF                            00000001
TMR2IP                            00000001
TMR2ON                            00000002
TMR3                              00000FB2
TMR3CS                            00000001
TMR3H                             00000FB3
TMR3IE                            00000001
TMR3IF                            00000001
TMR3IP                            00000001
TMR3L                             00000FB2
TMR3ON                            00000000
MPASM 5.61  /HOME/BS06/E2099018/DESKTOP/3-2/   4-6-2018  15:03:59         PAGE 33


SYMBOL TABLE
  LABEL                             VALUE 

TMR4                              00000F78
TMR4IE                            00000003
TMR4IF                            00000003
TMR4IP                            00000003
TMR4ON                            00000002
TO                                00000003
TOS                               00000FFD
TOSH                              00000FFE
TOSL                              00000FFD
TOSU                              00000FFF
TRISA                             00000F92
TRISA0                            00000000
TRISA1                            00000001
TRISA2                            00000002
TRISA3                            00000003
TRISA4                            00000004
TRISA5                            00000005
TRISA6                            00000006
TRISA7                            00000007
TRISB                             00000F93
TRISB0                            00000000
TRISB1                            00000001
TRISB2                            00000002
TRISB3                            00000003
TRISB4                            00000004
TRISB5                            00000005
TRISB6                            00000006
TRISB7                            00000007
TRISC                             00000F94
TRISC0                            00000000
TRISC1                            00000001
TRISC2                            00000002
TRISC3                            00000003
TRISC4                            00000004
TRISC5                            00000005
TRISC6                            00000006
TRISC7                            00000007
TRISD                             00000F95
TRISD0                            00000000
TRISD1                            00000001
TRISD2                            00000002
TRISD3                            00000003
TRISD4                            00000004
TRISD5                            00000005
TRISD6                            00000006
TRISD7                            00000007
TRISE                             00000F96
TRISE0                            00000000
TRISE1                            00000001
TRISE2                            00000002
TRISE3                            00000003
TRISE4                            00000004
TRISE5                            00000005
MPASM 5.61  /HOME/BS06/E2099018/DESKTOP/3-2/   4-6-2018  15:03:59         PAGE 34


SYMBOL TABLE
  LABEL                             VALUE 

TRISE6                            00000006
TRISE7                            00000007
TRISF                             00000F97
TRISF0                            00000000
TRISF1                            00000001
TRISF2                            00000002
TRISF3                            00000003
TRISF4                            00000004
TRISF5                            00000005
TRISF6                            00000006
TRISF7                            00000007
TRISG                             00000F98
TRISG0                            00000000
TRISG1                            00000001
TRISG2                            00000002
TRISG3                            00000003
TRISG4                            00000004
TRISH                             00000F99
TRISH0                            00000000
TRISH1                            00000001
TRISH2                            00000002
TRISH3                            00000003
TRISH4                            00000004
TRISH5                            00000005
TRISH6                            00000006
TRISH7                            00000007
TRISJ                             00000F9A
TRISJ0                            00000000
TRISJ1                            00000001
TRISJ2                            00000002
TRISJ3                            00000003
TRISJ4                            00000004
TRISJ5                            00000005
TRISJ6                            00000006
TRISJ7                            00000007
TRMT                              00000001
TRMT1                             00000001
TRMT2                             00000001
TUN0                              00000000
TUN1                              00000001
TUN2                              00000002
TUN3                              00000003
TUN4                              00000004
TX                                00000006
TX1                               00000006
TX1IE                             00000004
TX1IF                             00000004
TX1IP                             00000004
TX2                               00000001
TX2IE                             00000004
TX2IF                             00000004
TX2IP                             00000004
TX8_9                             00000006
MPASM 5.61  /HOME/BS06/E2099018/DESKTOP/3-2/   4-6-2018  15:03:59         PAGE 35


SYMBOL TABLE
  LABEL                             VALUE 

TX9                               00000006
TX91                              00000006
TX92                              00000006
TX9D                              00000000
TX9D1                             00000000
TX9D2                             00000000
TXD8                              00000000
TXEN                              00000005
TXEN1                             00000005
TXEN2                             00000005
TXIE                              00000004
TXIF                              00000004
TXIP                              00000004
TXREG                             00000FAD
TXREG1                            00000FAD
TXREG2                            00000F6D
TXSTA                             00000FAC
TXSTA1                            00000FAC
TXSTA2                            00000F6C
UA                                00000001
UA2                               00000001
UB                                00000007
VCFG0                             00000004
VCFG1                             00000005
VDIRMAG                           00000007
VREFM                             00000002
VREFP                             00000003
W                                 00000000
WAIT0                             00000004
WAIT1                             00000005
WCOL                              00000007
WCOL2                             00000007
WDTCON                            00000FD1
WM0                               00000000
WM1                               00000001
WR                                00000001
WREG                              00000FE8
WREN                              00000002
WRERR                             00000003
WRH                               00000003
WRL                               00000002
WUE                               00000001
WUE1                              00000001
WUE2                              00000001
Yok_olan46                        00000009
Z                                 00000002
_ADDRBW_ADDR12BIT_3L              000000DF
_ADDRBW_ADDR16BIT_3L              000000EF
_ADDRBW_ADDR20BIT_3L              000000FF
_ADDRBW_ADDR8BIT_3L               000000CF
_BBSIZ_BB2K_4L                    000000CF
_BBSIZ_BB4K_4L                    000000DF
_BBSIZ_BB8K_4L                    000000EF
MPASM 5.61  /HOME/BS06/E2099018/DESKTOP/3-2/   4-6-2018  15:03:59         PAGE 36


SYMBOL TABLE
  LABEL                             VALUE 

_BOREN_NOSLP_2L                   000000FD
_BOREN_OFF_2L                     000000F9
_BOREN_ON_2L                      000000FB
_BOREN_SBORDIS_2L                 000000FF
_BORV_0_2L                        000000E7
_BORV_1_2L                        000000EF
_BORV_2_2L                        000000F7
_BORV_3_2L                        000000FF
_CCP2MX_PORTBE_3H                 000000FE
_CCP2MX_PORTC_3H                  000000FF
_CONFIG1H                         00300001
_CONFIG2H                         00300003
_CONFIG2L                         00300002
_CONFIG3H                         00300005
_CONFIG3L                         00300004
_CONFIG4L                         00300006
_CONFIG5H                         00300009
_CONFIG5L                         00300008
_CONFIG6H                         0030000B
_CONFIG6L                         0030000A
_CONFIG7H                         0030000D
_CONFIG7L                         0030000C
_CP0_OFF_5L                       000000FF
_CP0_ON_5L                        000000FE
_CP1_OFF_5L                       000000FF
_CP1_ON_5L                        000000FD
_CP2_OFF_5L                       000000FF
_CP2_ON_5L                        000000FB
_CP3_OFF_5L                       000000FF
_CP3_ON_5L                        000000F7
_CP4_OFF_5L                       000000FF
_CP4_ON_5L                        000000EF
_CP5_OFF_5L                       000000FF
_CP5_ON_5L                        000000DF
_CP6_OFF_5L                       000000FF
_CP6_ON_5L                        000000BF
_CP7_OFF_5L                       000000FF
_CP7_ON_5L                        0000007F
_CPB_OFF_5H                       000000FF
_CPB_ON_5H                        000000BF
_CPD_OFF_5H                       000000FF
_CPD_ON_5H                        0000007F
_DATABW_DATA16BIT_3L              000000FF
_DATABW_DATA8BIT_3L               000000BF
_DEBUG_OFF_4L                     000000FF
_DEBUG_ON_4L                      0000007F
_DEVID1                           003FFFFE
_DEVID2                           003FFFFF
_EBTR0_OFF_7L                     000000FF
_EBTR0_ON_7L                      000000FE
_EBTR1_OFF_7L                     000000FF
_EBTR1_ON_7L                      000000FD
_EBTR2_OFF_7L                     000000FF
MPASM 5.61  /HOME/BS06/E2099018/DESKTOP/3-2/   4-6-2018  15:03:59         PAGE 37


SYMBOL TABLE
  LABEL                             VALUE 

_EBTR2_ON_7L                      000000FB
_EBTR3_OFF_7L                     000000FF
_EBTR3_ON_7L                      000000F7
_EBTR4_OFF_7L                     000000FF
_EBTR4_ON_7L                      000000EF
_EBTR5_OFF_7L                     000000FF
_EBTR5_ON_7L                      000000DF
_EBTR6_OFF_7L                     000000FF
_EBTR6_ON_7L                      000000BF
_EBTR7_OFF_7L                     000000FF
_EBTR7_ON_7L                      0000007F
_EBTRB_OFF_7H                     000000FF
_EBTRB_ON_7H                      000000BF
_ECCPMX_PORTE_3H                  000000FF
_ECCPMX_PORTH_3H                  000000FD
_FCMEN_OFF_1H                     000000BF
_FCMEN_ON_1H                      000000FF
_IDLOC0                           00200000
_IDLOC1                           00200001
_IDLOC2                           00200002
_IDLOC3                           00200003
_IDLOC4                           00200004
_IDLOC5                           00200005
_IDLOC6                           00200006
_IDLOC7                           00200007
_IESO_OFF_1H                      0000007F
_IESO_ON_1H                       000000FF
_LPT1OSC_OFF_3H                   000000FB
_LPT1OSC_ON_3H                    000000FF
_LVP_OFF_4L                       000000FB
_LVP_ON_4L                        000000FF
_MCLRE_OFF_3H                     0000007F
_MCLRE_ON_3H                      000000FF
_MODE_EM_3L                       000000FC
_MODE_MC_3L                       000000FF
_MODE_MPB_3L                      000000FD
_MODE_MP_3L                       000000FE
_OSC_ECIO6_1H                     000000F5
_OSC_EC_1H                        000000F4
_OSC_HSPLL_1H                     000000F6
_OSC_HS_1H                        000000F2
_OSC_INTIO67_1H                   000000F8
_OSC_INTIO7_1H                    000000F9
_OSC_LP_1H                        000000F0
_OSC_RCIO6_1H                     000000F7
_OSC_RC_1H                        000000F3
_OSC_XT_1H                        000000F1
_PWRT_OFF_2L                      000000FF
_PWRT_ON_2L                       000000FE
_STVREN_OFF_4L                    000000FE
_STVREN_ON_4L                     000000FF
_WAIT_OFF_3L                      000000FF
_WAIT_ON_3L                       0000007F
MPASM 5.61  /HOME/BS06/E2099018/DESKTOP/3-2/   4-6-2018  15:03:59         PAGE 38


SYMBOL TABLE
  LABEL                             VALUE 

_WDTPS_1024_2H                    000000F5
_WDTPS_128_2H                     000000EF
_WDTPS_16384_2H                   000000FD
_WDTPS_16_2H                      000000E9
_WDTPS_1_2H                       000000E1
_WDTPS_2048_2H                    000000F7
_WDTPS_256_2H                     000000F1
_WDTPS_2_2H                       000000E3
_WDTPS_32768_2H                   000000FF
_WDTPS_32_2H                      000000EB
_WDTPS_4096_2H                    000000F9
_WDTPS_4_2H                       000000E5
_WDTPS_512_2H                     000000F3
_WDTPS_64_2H                      000000ED
_WDTPS_8192_2H                    000000FB
_WDTPS_8_2H                       000000E7
_WDT_OFF_2H                       000000FE
_WDT_ON_2H                        000000FF
_WRT0_OFF_6L                      000000FF
_WRT0_ON_6L                       000000FE
_WRT1_OFF_6L                      000000FF
_WRT1_ON_6L                       000000FD
_WRT2_OFF_6L                      000000FF
_WRT2_ON_6L                       000000FB
_WRT3_OFF_6L                      000000FF
_WRT3_ON_6L                       000000F7
_WRT4_OFF_6L                      000000FF
_WRT4_ON_6L                       000000EF
_WRT5_OFF_6L                      000000FF
_WRT5_ON_6L                       000000DF
_WRT6_OFF_6L                      000000FF
_WRT6_ON_6L                       000000BF
_WRT7_OFF_6L                      000000FF
_WRT7_ON_6L                       0000007F
_WRTB_OFF_6H                      000000FF
_WRTB_ON_6H                       000000BF
_WRTC_OFF_6H                      000000FF
_WRTC_ON_6H                       000000DF
_WRTD_OFF_6H                      000000FF
_WRTD_ON_6H                       0000007F
_XINST_OFF_4L                     000000BF
_XINST_ON_4L                      000000FF
__18F8722                         00000001
a_bit_00_11                       00000088
a_bit_01                          00000098
a_bit_10                          000000AC
a_first_bit_0                     0000007E
b_bit_00_11                       000000E2
b_bit_01                          000000EA
b_bit_10                          000000FA
b_first_bit_0                     000000D8
c_bit_00_11                       0000012C
c_bit_01                          00000134
MPASM 5.61  /HOME/BS06/E2099018/DESKTOP/3-2/   4-6-2018  15:03:59         PAGE 39


SYMBOL TABLE
  LABEL                             VALUE 

c_bit_10                          00000144
c_first_bit_0                     00000122
column_ball                       0000000C
counter                           00000008
d_bit_00_11                       00000176
d_bit_01                          0000017A
d_bit_10                          0000018A
d_first_bit_0                     0000016C
direction                         0000000B
display                           0000037A
e_bit_00_11                       000001BC
e_bit_01                          000001C0
e_bit_10                          000001D0
e_first_bit_0                     000001B2
left_a                            0000006A
left_b                            000000C4
left_c                            0000010C
left_d                            00000156
left_e                            0000019C
left_end                          00000378
left_score                        0000000E
left_scored                       00000422
main                              00000020
move_ball                         00000034
move_ball_flag                    0000000A
move_down_1                       00000005
move_down_2                       00000007
move_paddle1_down                 000003BA
move_paddle1_end                  000003C8
move_paddle1_up                   000003AE
move_paddle2_down                 0000040E
move_paddle2_end                  0000041C
move_paddle2_up                   00000402
move_up_1                         00000004
move_up_2                         00000006
moving_to_left                    00000040
moving_to_right                   000001E2
paddle_1                          0000037A
paddle_1_led_task                 000003A8
paddle_2                          000003CE
paddle_2_led_task                 000003FC
rb_bit_00_11                      0000022A
rb_bit_01                         0000022E
rb_bit_10                         0000023E
rb_first_bit_0                    00000220
rc_bit_00_11                      0000026E
rc_bit_01                         00000272
rc_bit_10                         00000282
rc_first_bit_0                    00000264
rd_bit_00_11                      000002B2
rd_bit_01                         000002B6
rd_bit_10                         000002C6
rd_first_bit_0                    000002A8
MPASM 5.61  /HOME/BS06/E2099018/DESKTOP/3-2/   4-6-2018  15:03:59         PAGE 40


SYMBOL TABLE
  LABEL                             VALUE 

re_bit_00_11                      000002F6
re_bit_01                         000002FA
re_bit_10                         0000030A
re_first_bit_0                    000002EC
rf_bit_00_11                      0000033A
rf_bit_01                         0000034A
rf_bit_10                         00000360
rf_first_bit_0                    00000330
right_b                           0000020C
right_c                           00000250
right_d                           00000294
right_e                           000002D8
right_f                           0000031C
right_score                       0000000F
right_scored                      00000422
row                               0000000D
s_1_down                          00000001
s_1_up                            00000000
s_2_down                          00000003
s_2_up                            00000002

Errors   :     0
Warnings :    75 reported,     0 suppressed
Messages :     0 reported,     0 suppressed

